target datalayout = "e-m:e-p270:32:32-p271:32:32-p272:64:64-i64:64-i128:128-f80:128-n8:16:32:64-S128"
target triple = "x86_64-pc-linux-gnu"

%struct.ipmi_netfn_root = type { ptr, ptr, i32 }
%struct.ipmi_netfn_handler = type { ptr, ptr, i32, ptr, ptr, i32 }

@ipmi_cmd_tab = internal global [32 x %struct.ipmi_netfn_root] zeroinitializer, align 16
@.str.9 = private unnamed_addr constant [9 x i8] c"Reserved\00", align 1
@.str.10 = private unnamed_addr constant [8 x i8] c"%s (%s)\00", align 1

; Function Attrs: null_pointer_is_valid sspstrong uwtable
define hidden ptr @ipmi_getnetfnname(ptr noundef %0, i32 noundef %1, ptr noundef %2) #0 {
  %4 = alloca ptr, align 8
  %5 = alloca ptr, align 8
  %6 = alloca i32, align 4
  %7 = alloca ptr, align 8
  %8 = alloca ptr, align 8
  %9 = alloca ptr, align 8
  %10 = alloca i32, align 4
  store ptr %0, ptr %5, align 8
  store i32 %1, ptr %6, align 4
  store ptr %2, ptr %7, align 8
  call void @llvm.lifetime.start.p0(i64 8, ptr %8) #10
  call void @llvm.lifetime.start.p0(i64 8, ptr %9) #10
  %11 = load i32, ptr %6, align 4
  %12 = lshr i32 %11, 1
  %13 = zext i32 %12 to i64
  %14 = getelementptr [32 x %struct.ipmi_netfn_root], ptr @ipmi_cmd_tab, i64 0, i64 %13
  %15 = getelementptr inbounds nuw %struct.ipmi_netfn_root, ptr %14, i32 0, i32 1
  %16 = load ptr, ptr %15, align 8
  %17 = icmp ne ptr %16, null
  br i1 %17, label %18, label %25

18:                                               ; preds = %3
  %19 = load i32, ptr %6, align 4
  %20 = lshr i32 %19, 1
  %21 = zext i32 %20 to i64
  %22 = getelementptr [32 x %struct.ipmi_netfn_root], ptr @ipmi_cmd_tab, i64 0, i64 %21
  %23 = getelementptr inbounds nuw %struct.ipmi_netfn_root, ptr %22, i32 0, i32 1
  %24 = load ptr, ptr %23, align 8
  br label %26

25:                                               ; preds = %3
  br label %26

26:                                               ; preds = %25, %18
  %27 = phi ptr [ %24, %18 ], [ @.str.9, %25 ]
  store ptr %27, ptr %8, align 8
  %28 = load ptr, ptr %7, align 8
  %29 = icmp ne ptr %28, null
  br i1 %29, label %30, label %34

30:                                               ; preds = %26
  %31 = load ptr, ptr %7, align 8
  %32 = getelementptr inbounds nuw %struct.ipmi_netfn_handler, ptr %31, i32 0, i32 1
  %33 = load ptr, ptr %32, align 8
  br label %35

34:                                               ; preds = %26
  br label %35

35:                                               ; preds = %34, %30
  %36 = phi ptr [ %33, %30 ], [ null, %34 ]
  store ptr %36, ptr %9, align 8
  %37 = load ptr, ptr %9, align 8
  %38 = icmp ne ptr %37, null
  br i1 %38, label %39, label %44

39:                                               ; preds = %35
  %40 = load ptr, ptr %5, align 8
  %41 = load ptr, ptr %9, align 8
  %42 = load ptr, ptr %8, align 8
  %43 = call noalias ptr (ptr, ptr, ...) @wmem_strdup_printf(ptr noundef %40, ptr noundef @.str.10, ptr noundef %41, ptr noundef %42)
  store ptr %43, ptr %4, align 8
  store i32 1, ptr %10, align 4
  br label %46

44:                                               ; preds = %35
  %45 = load ptr, ptr %8, align 8
  store ptr %45, ptr %4, align 8
  store i32 1, ptr %10, align 4
  br label %46

46:                                               ; preds = %44, %39
  call void @llvm.lifetime.end.p0(i64 8, ptr %9) #10
  call void @llvm.lifetime.end.p0(i64 8, ptr %8) #10
  %47 = load ptr, ptr %4, align 8
  ret ptr %47
}