; Function Attrs: null_pointer_is_valid sspstrong uwtable
define hidden ptr @ipmi_getnetfnname(ptr noundef %0, i32 noundef %1, ptr noundef readonly captures(address_is_null) %2) local_unnamed_addr #0 {
  %4 = lshr i32 %1, 1
  %5 = zext nneg i32 %4 to i64
  %6 = getelementptr [32 x %struct.ipmi_netfn_root], ptr @ipmi_cmd_tab, i64 0, i64 %5, i32 1
  %7 = load ptr, ptr %6, align 8
  %.not = icmp eq ptr %7, null
  %spec.select = select i1 %.not, ptr @.str.9, ptr %7
  %.not12 = icmp eq ptr %2, null
  br i1 %.not12, label %.thread, label %8

8:                                                ; preds = %3
  %9 = getelementptr inbounds nuw i8, ptr %2, i64 8
  %10 = load ptr, ptr %9, align 8
  %.not13 = icmp eq ptr %10, null
  br i1 %.not13, label %.thread, label %11

11:                                               ; preds = %8
  %12 = tail call noalias ptr (ptr, ptr, ...) @wmem_strdup_printf(ptr noundef %0, ptr noundef nonnull @.str.10, ptr noundef nonnull %10, ptr noundef nonnull %spec.select)
  br label %.thread

.thread:                                          ; preds = %3, %8, %11
  %.0 = phi ptr [ %12, %11 ], [ %spec.select, %8 ], [ %spec.select, %3 ]
  ret ptr %.0
}